target datalayout = "e-m:e-p270:32:32-p271:32:32-p272:64:64-i64:64-i128:128-f80:128-n8:16:32:64-S128"
target triple = "x86_64-pc-linux-gnu"

%"class.icu_77::IteratedChar" = type <{ i32, i32, i32, i8, i8, [2 x i8] }>
%"class.icu_77::InputText" = type <{ ptr, i32, [4 x i8], ptr, i8, [7 x i8], ptr, ptr, i32, [4 x i8] }>

; Function Attrs: mustprogress nounwind uwtable
define noundef i32 @_ZN6icu_7712IteratedChar8nextByteEPNS_9InputTextE(ptr noundef nonnull align 4 dereferenceable(14) %0, ptr noundef %1) #0 align 2 {
  %3 = alloca i32, align 4
  %4 = alloca ptr, align 8
  %5 = alloca ptr, align 8
  store ptr %0, ptr %4, align 8, !tbaa !3
  store ptr %1, ptr %5, align 8, !tbaa !15
  %6 = load ptr, ptr %4, align 8
  %7 = getelementptr inbounds nuw %"class.icu_77::IteratedChar", ptr %6, i32 0, i32 2
  %8 = load i32, ptr %7, align 4, !tbaa !12
  %9 = load ptr, ptr %5, align 8, !tbaa !15
  %10 = getelementptr inbounds nuw %"class.icu_77::InputText", ptr %9, i32 0, i32 8
  %11 = load i32, ptr %10, align 8, !tbaa !17
  %12 = icmp sge i32 %8, %11
  br i1 %12, label %13, label %15

13:                                               ; preds = %2
  %14 = getelementptr inbounds nuw %"class.icu_77::IteratedChar", ptr %6, i32 0, i32 4
  store i8 1, ptr %14, align 1, !tbaa !14
  store i32 -1, ptr %3, align 4
  br label %26

15:                                               ; preds = %2
  %16 = load ptr, ptr %5, align 8, !tbaa !15
  %17 = getelementptr inbounds nuw %"class.icu_77::InputText", ptr %16, i32 0, i32 7
  %18 = load ptr, ptr %17, align 8, !tbaa !21
  %19 = getelementptr inbounds nuw %"class.icu_77::IteratedChar", ptr %6, i32 0, i32 2
  %20 = load i32, ptr %19, align 4, !tbaa !12
  %21 = add nsw i32 %20, 1
  store i32 %21, ptr %19, align 4, !tbaa !12
  %22 = sext i32 %20 to i64
  %23 = getelementptr inbounds i8, ptr %18, i64 %22
  %24 = load i8, ptr %23, align 1, !tbaa !22
  %25 = zext i8 %24 to i32
  store i32 %25, ptr %3, align 4
  br label %26

26:                                               ; preds = %15, %13
  %27 = load i32, ptr %3, align 4
  ret i32 %27
}

; Function Attrs: mustprogress nounwind uwtable
define noundef signext i8 @_ZNK6icu_7716CharsetRecog_euc8nextCharEPNS_12IteratedCharEPNS_9InputTextE(ptr noundef nonnull align 8 dereferenceable(8) %0, ptr noundef %1, ptr noundef %2) unnamed_addr #0 align 2 {
  %4 = alloca i8, align 1
  %5 = alloca ptr, align 8
  %6 = alloca ptr, align 8
  %7 = alloca ptr, align 8
  %8 = alloca i32, align 4
  %9 = alloca i32, align 4
  %10 = alloca i32, align 4
  %11 = alloca i32, align 4
  store ptr %0, ptr %5, align 8, !tbaa !40
  store ptr %1, ptr %6, align 8, !tbaa !3
  store ptr %2, ptr %7, align 8, !tbaa !15
  call void @llvm.lifetime.start.p0(i64 4, ptr %8) #7
  store i32 0, ptr %8, align 4, !tbaa !26
  call void @llvm.lifetime.start.p0(i64 4, ptr %9) #7
  store i32 0, ptr %9, align 4, !tbaa !26
  call void @llvm.lifetime.start.p0(i64 4, ptr %10) #7
  store i32 0, ptr %10, align 4, !tbaa !26
  %12 = load ptr, ptr %6, align 8, !tbaa !3
  %13 = getelementptr inbounds nuw %"class.icu_77::IteratedChar", ptr %12, i32 0, i32 2
  %14 = load i32, ptr %13, align 4, !tbaa !12
  %15 = load ptr, ptr %6, align 8, !tbaa !3
  %16 = getelementptr inbounds nuw %"class.icu_77::IteratedChar", ptr %15, i32 0, i32 1
  store i32 %14, ptr %16, align 4, !tbaa !11
  %17 = load ptr, ptr %6, align 8, !tbaa !3
  %18 = getelementptr inbounds nuw %"class.icu_77::IteratedChar", ptr %17, i32 0, i32 3
  store i8 0, ptr %18, align 4, !tbaa !13
  %19 = load ptr, ptr %6, align 8, !tbaa !3
  %20 = load ptr, ptr %7, align 8, !tbaa !15
  %21 = call noundef i32 @_ZN6icu_7712IteratedChar8nextByteEPNS_9InputTextE(ptr noundef nonnull align 4 dereferenceable(14) %19, ptr noundef %20)
  %22 = load ptr, ptr %6, align 8, !tbaa !3
  %23 = getelementptr inbounds nuw %"class.icu_77::IteratedChar", ptr %22, i32 0, i32 0
  store i32 %21, ptr %23, align 4, !tbaa !8
  store i32 %21, ptr %8, align 4, !tbaa !26
  %24 = load i32, ptr %8, align 4, !tbaa !26
  %25 = icmp slt i32 %24, 0
  br i1 %25, label %26, label %27

26:                                               ; preds = %3
  store i8 0, ptr %4, align 1
  store i32 1, ptr %11, align 4
  br label %91

27:                                               ; preds = %3
  %28 = load i32, ptr %8, align 4, !tbaa !26
  %29 = icmp sle i32 %28, 141
  br i1 %29, label %30, label %31

30:                                               ; preds = %27
  store i8 1, ptr %4, align 1
  store i32 1, ptr %11, align 4
  br label %91

31:                                               ; preds = %27
  %32 = load ptr, ptr %6, align 8, !tbaa !3
  %33 = load ptr, ptr %7, align 8, !tbaa !15
  %34 = call noundef i32 @_ZN6icu_7712IteratedChar8nextByteEPNS_9InputTextE(ptr noundef nonnull align 4 dereferenceable(14) %32, ptr noundef %33)
  store i32 %34, ptr %9, align 4, !tbaa !26
  %35 = load i32, ptr %9, align 4, !tbaa !26
  %36 = icmp sge i32 %35, 0
  br i1 %36, label %37, label %46

37:                                               ; preds = %31
  %38 = load ptr, ptr %6, align 8, !tbaa !3
  %39 = getelementptr inbounds nuw %"class.icu_77::IteratedChar", ptr %38, i32 0, i32 0
  %40 = load i32, ptr %39, align 4, !tbaa !8
  %41 = shl i32 %40, 8
  %42 = load i32, ptr %9, align 4, !tbaa !26
  %43 = or i32 %41, %42
  %44 = load ptr, ptr %6, align 8, !tbaa !3
  %45 = getelementptr inbounds nuw %"class.icu_77::IteratedChar", ptr %44, i32 0, i32 0
  store i32 %43, ptr %45, align 4, !tbaa !8
  br label %46

46:                                               ; preds = %37, %31
  %47 = load i32, ptr %8, align 4, !tbaa !26
  %48 = icmp sge i32 %47, 161
  br i1 %48, label %49, label %59

49:                                               ; preds = %46
  %50 = load i32, ptr %8, align 4, !tbaa !26
  %51 = icmp sle i32 %50, 254
  br i1 %51, label %52, label %59

52:                                               ; preds = %49
  %53 = load i32, ptr %9, align 4, !tbaa !26
  %54 = icmp slt i32 %53, 161
  br i1 %54, label %55, label %58

55:                                               ; preds = %52
  %56 = load ptr, ptr %6, align 8, !tbaa !3
  %57 = getelementptr inbounds nuw %"class.icu_77::IteratedChar", ptr %56, i32 0, i32 3
  store i8 1, ptr %57, align 4, !tbaa !13
  br label %58

58:                                               ; preds = %55, %52
  store i8 1, ptr %4, align 1
  store i32 1, ptr %11, align 4
  br label %91

59:                                               ; preds = %49, %46
  %60 = load i32, ptr %8, align 4, !tbaa !26
  %61 = icmp eq i32 %60, 142
  br i1 %61, label %62, label %69

62:                                               ; preds = %59
  %63 = load i32, ptr %9, align 4, !tbaa !26
  %64 = icmp slt i32 %63, 161
  br i1 %64, label %65, label %68

65:                                               ; preds = %62
  %66 = load ptr, ptr %6, align 8, !tbaa !3
  %67 = getelementptr inbounds nuw %"class.icu_77::IteratedChar", ptr %66, i32 0, i32 3
  store i8 1, ptr %67, align 4, !tbaa !13
  br label %68

68:                                               ; preds = %65, %62
  store i8 1, ptr %4, align 1
  store i32 1, ptr %11, align 4
  br label %91

69:                                               ; preds = %59
  %70 = load i32, ptr %8, align 4, !tbaa !26
  %71 = icmp eq i32 %70, 143
  br i1 %71, label %72, label %90

72:                                               ; preds = %69
  %73 = load ptr, ptr %6, align 8, !tbaa !3
  %74 = load ptr, ptr %7, align 8, !tbaa !15
  %75 = call noundef i32 @_ZN6icu_7712IteratedChar8nextByteEPNS_9InputTextE(ptr noundef nonnull align 4 dereferenceable(14) %73, ptr noundef %74)
  store i32 %75, ptr %10, align 4, !tbaa !26
  %76 = load ptr, ptr %6, align 8, !tbaa !3
  %77 = getelementptr inbounds nuw %"class.icu_77::IteratedChar", ptr %76, i32 0, i32 0
  %78 = load i32, ptr %77, align 4, !tbaa !8
  %79 = shl i32 %78, 8
  %80 = load i32, ptr %10, align 4, !tbaa !26
  %81 = or i32 %79, %80
  %82 = load ptr, ptr %6, align 8, !tbaa !3
  %83 = getelementptr inbounds nuw %"class.icu_77::IteratedChar", ptr %82, i32 0, i32 0
  store i32 %81, ptr %83, align 4, !tbaa !8
  %84 = load i32, ptr %10, align 4, !tbaa !26
  %85 = icmp slt i32 %84, 161
  br i1 %85, label %86, label %89

86:                                               ; preds = %72
  %87 = load ptr, ptr %6, align 8, !tbaa !3
  %88 = getelementptr inbounds nuw %"class.icu_77::IteratedChar", ptr %87, i32 0, i32 3
  store i8 1, ptr %88, align 4, !tbaa !13
  br label %89

89:                                               ; preds = %86, %72
  br label %90

90:                                               ; preds = %89, %69
  store i8 1, ptr %4, align 1
  store i32 1, ptr %11, align 4
  br label %91

91:                                               ; preds = %90, %68, %58, %30, %26
  call void @llvm.lifetime.end.p0(i64 4, ptr %10) #7
  call void @llvm.lifetime.end.p0(i64 4, ptr %9) #7
  call void @llvm.lifetime.end.p0(i64 4, ptr %8) #7
  %92 = load i8, ptr %4, align 1
  ret i8 %92
}