; Function Attrs: mustprogress nofree norecurse nosync nounwind willreturn memory(read, argmem: readwrite, inaccessiblemem: none) uwtable
define noundef signext range(i8 0, 2) i8 @_ZNK6icu_7716CharsetRecog_euc8nextCharEPNS_12IteratedCharEPNS_9InputTextE(ptr nonnull readnone align 8 captures(none) %0, ptr noundef captures(none) initializes((0, 8), (12, 13)) %1, ptr noundef readonly captures(none) %2) unnamed_addr #1 align 2 {
  %4 = getelementptr inbounds nuw i8, ptr %1, i64 8
  %5 = load i32, ptr %4, align 4, !tbaa !9
  %6 = getelementptr inbounds nuw i8, ptr %1, i64 4
  store i32 %5, ptr %6, align 4, !tbaa !8
  %7 = getelementptr inbounds nuw i8, ptr %1, i64 12
  store i8 0, ptr %7, align 4, !tbaa !10
  %8 = getelementptr inbounds nuw i8, ptr %2, i64 48
  %9 = load i32, ptr %8, align 8, !tbaa !12
  %.not.i = icmp slt i32 %5, %9
  br i1 %.not.i, label %_ZN6icu_7712IteratedChar8nextByteEPNS_9InputTextE.exit, label %_ZN6icu_7712IteratedChar8nextByteEPNS_9InputTextE.exit.thread

_ZN6icu_7712IteratedChar8nextByteEPNS_9InputTextE.exit.thread: ; preds = %3
  %10 = getelementptr inbounds nuw i8, ptr %1, i64 13
  store i8 1, ptr %10, align 1, !tbaa !11
  store i32 -1, ptr %1, align 4, !tbaa !3
  br label %50

_ZN6icu_7712IteratedChar8nextByteEPNS_9InputTextE.exit: ; preds = %3
  %11 = getelementptr inbounds nuw i8, ptr %2, i64 40
  %12 = load ptr, ptr %11, align 8, !tbaa !17
  %13 = add nsw i32 %5, 1
  store i32 %13, ptr %4, align 4, !tbaa !9
  %14 = sext i32 %5 to i64
  %15 = getelementptr inbounds i8, ptr %12, i64 %14
  %16 = load i8, ptr %15, align 1, !tbaa !18
  %17 = zext i8 %16 to i32
  store i32 %17, ptr %1, align 4, !tbaa !3
  %18 = icmp ult i8 %16, -114
  br i1 %18, label %50, label %19

19:                                               ; preds = %_ZN6icu_7712IteratedChar8nextByteEPNS_9InputTextE.exit
  %.not.i32 = icmp slt i32 %13, %9
  br i1 %.not.i32, label %20, label %.thread

20:                                               ; preds = %19
  %21 = add nsw i32 %5, 2
  store i32 %21, ptr %4, align 4, !tbaa !9
  %22 = sext i32 %13 to i64
  %23 = getelementptr inbounds i8, ptr %12, i64 %22
  %24 = load i8, ptr %23, align 1, !tbaa !18
  %25 = zext i8 %24 to i32
  %26 = shl nuw nsw i32 %17, 8
  %27 = or disjoint i32 %26, %25
  store i32 %27, ptr %1, align 4, !tbaa !3
  %28 = add nsw i8 %16, 95
  %or.cond = icmp ult i8 %28, 94
  br i1 %or.cond, label %31, label %33

.thread:                                          ; preds = %19
  %29 = getelementptr inbounds nuw i8, ptr %1, i64 13
  store i8 1, ptr %29, align 1, !tbaa !11
  %30 = add nsw i8 %16, 95
  %or.cond43 = icmp ult i8 %30, 94
  br i1 %or.cond43, label %.thread46, label %33

31:                                               ; preds = %20
  %32 = icmp ult i8 %24, -95
  br i1 %32, label %.thread46, label %50

.thread46:                                        ; preds = %.thread, %31
  store i8 1, ptr %7, align 4, !tbaa !10
  br label %50

33:                                               ; preds = %.thread, %20
  %34 = phi i32 [ %17, %.thread ], [ %27, %20 ]
  %35 = phi i32 [ %13, %.thread ], [ %21, %20 ]
  %.0.i334144 = phi i32 [ -1, %.thread ], [ %25, %20 ]
  switch i8 %16, label %50 [
    i8 -114, label %36
    i8 -113, label %39
  ]

36:                                               ; preds = %33
  %37 = icmp slt i32 %.0.i334144, 161
  br i1 %37, label %38, label %50

38:                                               ; preds = %36
  store i8 1, ptr %7, align 4, !tbaa !10
  br label %50

39:                                               ; preds = %33
  %.not.i35 = icmp slt i32 %35, %9
  br i1 %.not.i35, label %_ZN6icu_7712IteratedChar8nextByteEPNS_9InputTextE.exit37, label %_ZN6icu_7712IteratedChar8nextByteEPNS_9InputTextE.exit37.thread

_ZN6icu_7712IteratedChar8nextByteEPNS_9InputTextE.exit37.thread: ; preds = %39
  %40 = getelementptr inbounds nuw i8, ptr %1, i64 13
  store i8 1, ptr %40, align 1, !tbaa !11
  store i32 -1, ptr %1, align 4, !tbaa !3
  br label %49

_ZN6icu_7712IteratedChar8nextByteEPNS_9InputTextE.exit37: ; preds = %39
  %41 = add nsw i32 %35, 1
  store i32 %41, ptr %4, align 4, !tbaa !9
  %42 = sext i32 %35 to i64
  %43 = getelementptr inbounds i8, ptr %12, i64 %42
  %44 = load i8, ptr %43, align 1, !tbaa !18
  %45 = zext i8 %44 to i32
  %46 = shl nuw nsw i32 %34, 8
  %47 = or disjoint i32 %46, %45
  store i32 %47, ptr %1, align 4, !tbaa !3
  %48 = icmp ult i8 %44, -95
  br i1 %48, label %49, label %50

49:                                               ; preds = %_ZN6icu_7712IteratedChar8nextByteEPNS_9InputTextE.exit37.thread, %_ZN6icu_7712IteratedChar8nextByteEPNS_9InputTextE.exit37
  store i8 1, ptr %7, align 4, !tbaa !10
  br label %50

50:                                               ; preds = %_ZN6icu_7712IteratedChar8nextByteEPNS_9InputTextE.exit.thread, %49, %_ZN6icu_7712IteratedChar8nextByteEPNS_9InputTextE.exit37, %33, %36, %38, %31, %.thread46, %_ZN6icu_7712IteratedChar8nextByteEPNS_9InputTextE.exit
  %.0 = phi i8 [ 1, %_ZN6icu_7712IteratedChar8nextByteEPNS_9InputTextE.exit ], [ 1, %.thread46 ], [ 1, %31 ], [ 1, %38 ], [ 1, %36 ], [ 1, %33 ], [ 1, %_ZN6icu_7712IteratedChar8nextByteEPNS_9InputTextE.exit37 ], [ 1, %49 ], [ 0, %_ZN6icu_7712IteratedChar8nextByteEPNS_9InputTextE.exit.thread ]
  ret i8 %.0
}